target datalayout = "e-m:e-p270:32:32-p271:32:32-p272:64:64-i64:64-i128:128-f80:128-n8:16:32:64-S128"
target triple = "x86_64-pc-linux-gnu"

%"class.std::_Function_base" = type { %"union.std::_Any_data", ptr }
%"union.std::_Any_data" = type { %"union.std::_Nocopy_types" }
%"union.std::_Nocopy_types" = type { { i64, i64 } }
%"class.gmx::EnergyData::Element" = type <{ %"class.gmx::ISimulatorElement", %"class.gmx::ITrajectoryWriterClient", %"class.gmx::ITrajectorySignallerClient", %"class.gmx::IEnergySignallerClient", %"class.gmx::ICheckpointHelperClient", ptr, %"class.std::__cxx11::basic_string", i8, [7 x i8], i64, i64, i64, i32, [4 x i8] }>
%"class.gmx::ISimulatorElement" = type { ptr }
%"class.gmx::ITrajectoryWriterClient" = type { ptr }
%"class.gmx::ITrajectorySignallerClient" = type { ptr }
%"class.gmx::IEnergySignallerClient" = type { ptr }
%"class.gmx::ICheckpointHelperClient" = type { ptr }
%"class.std::__cxx11::basic_string" = type { %"struct.std::__cxx11::basic_string<char>::_Alloc_hider", i64, %union.anon }
%"struct.std::__cxx11::basic_string<char>::_Alloc_hider" = type { ptr }
%union.anon = type { i64, [8 x i8] }
%"class.std::optional.17" = type { %"struct.std::_Optional_base.18" }
%"struct.std::_Optional_base.18" = type { %"struct.std::_Optional_payload.20" }
%"struct.std::_Optional_payload.20" = type { %"struct.std::_Optional_payload.base.24", [7 x i8] }
%"struct.std::_Optional_payload.base.24" = type { %"struct.std::_Optional_payload_base.base.23" }
%"struct.std::_Optional_payload_base.base.23" = type <{ %"union.std::_Optional_payload_base<std::function<void (long, double)>>::_Storage", i8 }>
%"union.std::_Optional_payload_base<std::function<void (long, double)>>::_Storage" = type { %"class.std::function" }
%"class.std::function" = type { %"class.std::_Function_base", ptr }
%class.anon.266 = type { ptr }
%"struct.std::_Optional_payload_base.22" = type <{ %"union.std::_Optional_payload_base<std::function<void (long, double)>>::_Storage", i8, [7 x i8] }>

; Function Attrs: mustprogress nounwind uwtable
define linkonce_odr noundef ptr @_ZNSt9_Any_data9_M_accessEv(ptr noundef nonnull align 8 dereferenceable(16) %0) #1 comdat align 2 {
  %2 = alloca ptr, align 8
  store ptr %0, ptr %2, align 8, !tbaa !366
  %3 = load ptr, ptr %2, align 8
  %4 = getelementptr inbounds [16 x i8], ptr %3, i64 0, i64 0
  ret ptr %4
}

; Function Attrs: mustprogress nounwind uwtable
define internal void @"_ZNSt14_Function_base13_Base_managerIZN3gmx10EnergyData7Element35registerTrajectorySignallerCallbackENS1_15TrajectoryEventEE3$_0E9_M_createIS5_EEvRSt9_Any_dataOT_St17integral_constantIbLb1EE"(ptr noundef nonnull align 8 dereferenceable(16) %0, ptr noundef nonnull align 8 dereferenceable(8) %1) #1 align 2 {
  %3 = alloca ptr, align 8
  %4 = alloca ptr, align 8
  store ptr %0, ptr %3, align 8, !tbaa !366
  store ptr %1, ptr %4, align 8, !tbaa !285
  %5 = load ptr, ptr %3, align 8, !tbaa !366
  %6 = call noundef ptr @_ZNSt9_Any_data9_M_accessEv(ptr noundef nonnull align 8 dereferenceable(16) %5) #22
  %7 = load ptr, ptr %4, align 8, !tbaa !285
  call void @llvm.memcpy.p0.p0.i64(ptr align 8 %6, ptr align 8 %7, i64 8, i1 false), !tbaa.struct !413
  ret void
}

; Function Attrs: mustprogress nounwind uwtable
define internal void @"_ZNSt14_Function_base13_Base_managerIZN3gmx10EnergyData7Element35registerTrajectorySignallerCallbackENS1_15TrajectoryEventEE3$_0E15_M_init_functorIS5_EEvRSt9_Any_dataOT_"(ptr noundef nonnull align 8 dereferenceable(16) %0, ptr noundef nonnull align 8 dereferenceable(8) %1) #1 align 2 personality ptr @__gxx_personality_v0 {
  %3 = alloca ptr, align 8
  %4 = alloca ptr, align 8
  store ptr %0, ptr %3, align 8, !tbaa !366
  store ptr %1, ptr %4, align 8, !tbaa !285
  %5 = load ptr, ptr %3, align 8, !tbaa !366
  %6 = load ptr, ptr %4, align 8, !tbaa !285
  invoke void @"_ZNSt14_Function_base13_Base_managerIZN3gmx10EnergyData7Element35registerTrajectorySignallerCallbackENS1_15TrajectoryEventEE3$_0E9_M_createIS5_EEvRSt9_Any_dataOT_St17integral_constantIbLb1EE"(ptr noundef nonnull align 8 dereferenceable(16) %5, ptr noundef nonnull align 8 dereferenceable(8) %6)
          to label %7 unwind label %8

7:                                                ; preds = %2
  ret void

8:                                                ; preds = %2
  %9 = landingpad { ptr, i32 }
          catch ptr null
  %10 = extractvalue { ptr, i32 } %9, 0
  call void @__clang_call_terminate(ptr %10) #25
  unreachable
}

; Function Attrs: mustprogress nounwind uwtable
define internal noundef zeroext i1 @"_ZNSt14_Function_base13_Base_managerIZN3gmx10EnergyData7Element35registerTrajectorySignallerCallbackENS1_15TrajectoryEventEE3$_0E21_M_not_empty_functionIS5_EEbRKT_"(ptr noundef nonnull align 8 dereferenceable(8) %0) #1 align 2 {
  %2 = alloca ptr, align 8
  store ptr %0, ptr %2, align 8, !tbaa !285
  ret i1 true
}

; Function Attrs: mustprogress nounwind uwtable
define linkonce_odr void @_ZNSt14_Function_baseC2Ev(ptr noundef nonnull align 8 dereferenceable(24) %0) unnamed_addr #1 comdat align 2 {
  %2 = alloca ptr, align 8
  store ptr %0, ptr %2, align 8, !tbaa !248
  %3 = load ptr, ptr %2, align 8
  %4 = getelementptr inbounds nuw %"class.std::_Function_base", ptr %3, i32 0, i32 0
  store ptr null, ptr %4, align 8, !tbaa !250
  %5 = getelementptr inbounds nuw %"class.std::_Function_base", ptr %3, i32 0, i32 1
  store ptr null, ptr %5, align 8, !tbaa !251
  ret void
}

; Function Attrs: mustprogress nounwind uwtable
define internal void @"_ZNSt8functionIFvldEEC2IZN3gmx10EnergyData7Element35registerTrajectorySignallerCallbackENS3_15TrajectoryEventEE3$_0vEEOT_"(ptr noundef nonnull align 8 dereferenceable(32) %0, ptr noundef nonnull align 8 dereferenceable(8) %1) unnamed_addr #1 align 2 {
  %3 = alloca ptr, align 8
  %4 = alloca ptr, align 8
  store ptr %0, ptr %3, align 8, !tbaa !596
  store ptr %1, ptr %4, align 8, !tbaa !285
  %5 = load ptr, ptr %3, align 8
  %6 = getelementptr inbounds i8, ptr %5, i64 0
  call void @llvm.memset.p0.i64(ptr align 8 %6, i8 0, i64 24, i1 false)
  call void @_ZNSt14_Function_baseC2Ev(ptr noundef nonnull align 8 dereferenceable(24) %5) #22
  %7 = getelementptr inbounds nuw %"class.std::function", ptr %5, i32 0, i32 1
  store ptr null, ptr %7, align 8, !tbaa !598
  %8 = load ptr, ptr %4, align 8, !tbaa !285
  %9 = call noundef zeroext i1 @"_ZNSt14_Function_base13_Base_managerIZN3gmx10EnergyData7Element35registerTrajectorySignallerCallbackENS1_15TrajectoryEventEE3$_0E21_M_not_empty_functionIS5_EEbRKT_"(ptr noundef nonnull align 8 dereferenceable(8) %8) #22
  br i1 %9, label %10, label %15

10:                                               ; preds = %2
  %11 = getelementptr inbounds nuw %"class.std::_Function_base", ptr %5, i32 0, i32 0
  %12 = load ptr, ptr %4, align 8, !tbaa !285
  call void @"_ZNSt14_Function_base13_Base_managerIZN3gmx10EnergyData7Element35registerTrajectorySignallerCallbackENS1_15TrajectoryEventEE3$_0E15_M_init_functorIS5_EEvRSt9_Any_dataOT_"(ptr noundef nonnull align 8 dereferenceable(16) %11, ptr noundef nonnull align 8 dereferenceable(8) %12) #22
  %13 = getelementptr inbounds nuw %"class.std::function", ptr %5, i32 0, i32 1
  store ptr @"_ZNSt17_Function_handlerIFvldEZN3gmx10EnergyData7Element35registerTrajectorySignallerCallbackENS1_15TrajectoryEventEE3$_0E9_M_invokeERKSt9_Any_dataOlOd", ptr %13, align 8, !tbaa !598
  %14 = getelementptr inbounds nuw %"class.std::_Function_base", ptr %5, i32 0, i32 1
  store ptr @"_ZNSt17_Function_handlerIFvldEZN3gmx10EnergyData7Element35registerTrajectorySignallerCallbackENS1_15TrajectoryEventEE3$_0E10_M_managerERSt9_Any_dataRKS7_St18_Manager_operation", ptr %14, align 8, !tbaa !251
  br label %15

15:                                               ; preds = %10, %2
  ret void
}

; Function Attrs: mustprogress nounwind uwtable
define linkonce_odr void @_ZNSt22_Optional_payload_baseISt8functionIFvldEEE8_StorageIS2_Lb0EEC2Ev(ptr noundef nonnull align 8 dereferenceable(32) %0) unnamed_addr #1 comdat align 2 {
  %2 = alloca ptr, align 8
  store ptr %0, ptr %2, align 8, !tbaa !594
  ret void
}

; Function Attrs: mustprogress nounwind uwtable
define internal void @"_ZNSt22_Optional_payload_baseISt8functionIFvldEEE8_StorageIS2_Lb0EEC2IJZN3gmx10EnergyData7Element35registerTrajectorySignallerCallbackENS7_15TrajectoryEventEE3$_0EEESt10in_place_tDpOT_"(ptr noundef nonnull align 8 dereferenceable(32) %0, ptr noundef nonnull align 8 dereferenceable(8) %1) unnamed_addr #1 align 2 {
  %3 = alloca ptr, align 8
  %4 = alloca ptr, align 8
  store ptr %0, ptr %3, align 8, !tbaa !594
  store ptr %1, ptr %4, align 8, !tbaa !285
  %5 = load ptr, ptr %3, align 8
  %6 = load ptr, ptr %4, align 8, !tbaa !285
  call void @"_ZNSt8functionIFvldEEC2IZN3gmx10EnergyData7Element35registerTrajectorySignallerCallbackENS3_15TrajectoryEventEE3$_0vEEOT_"(ptr noundef nonnull align 8 dereferenceable(32) %5, ptr noundef nonnull align 8 dereferenceable(8) %6) #22
  ret void
}

; Function Attrs: mustprogress nounwind uwtable
define linkonce_odr void @_ZNSt22_Optional_payload_baseISt8functionIFvldEEEC2Ev(ptr noundef nonnull align 8 dereferenceable(33) %0) unnamed_addr #1 comdat align 2 {
  %2 = alloca ptr, align 8
  store ptr %0, ptr %2, align 8, !tbaa !590
  %3 = load ptr, ptr %2, align 8
  %4 = getelementptr inbounds nuw %"struct.std::_Optional_payload_base.22", ptr %3, i32 0, i32 0
  call void @_ZNSt22_Optional_payload_baseISt8functionIFvldEEE8_StorageIS2_Lb0EEC2Ev(ptr noundef nonnull align 8 dereferenceable(32) %4) #22
  %5 = getelementptr inbounds nuw %"struct.std::_Optional_payload_base.22", ptr %3, i32 0, i32 1
  store i8 0, ptr %5, align 8, !tbaa !592
  ret void
}

; Function Attrs: mustprogress uwtable
define internal void @"_ZNSt22_Optional_payload_baseISt8functionIFvldEEEC2IJZN3gmx10EnergyData7Element35registerTrajectorySignallerCallbackENS5_15TrajectoryEventEE3$_0EEESt10in_place_tDpOT_"(ptr noundef nonnull align 8 dereferenceable(33) %0, ptr noundef nonnull align 8 dereferenceable(8) %1) unnamed_addr #0 align 2 {
  %3 = alloca ptr, align 8
  %4 = alloca ptr, align 8
  store ptr %0, ptr %3, align 8, !tbaa !590
  store ptr %1, ptr %4, align 8, !tbaa !285
  %5 = load ptr, ptr %3, align 8
  %6 = getelementptr inbounds nuw %"struct.std::_Optional_payload_base.22", ptr %5, i32 0, i32 0
  %7 = load ptr, ptr %4, align 8, !tbaa !285
  call void @"_ZNSt22_Optional_payload_baseISt8functionIFvldEEE8_StorageIS2_Lb0EEC2IJZN3gmx10EnergyData7Element35registerTrajectorySignallerCallbackENS7_15TrajectoryEventEE3$_0EEESt10in_place_tDpOT_"(ptr noundef nonnull align 8 dereferenceable(32) %6, ptr noundef nonnull align 8 dereferenceable(8) %7)
  %8 = getelementptr inbounds nuw %"struct.std::_Optional_payload_base.22", ptr %5, i32 0, i32 1
  store i8 1, ptr %8, align 8, !tbaa !592
  ret void
}

; Function Attrs: mustprogress nounwind uwtable
define linkonce_odr void @_ZNSt17_Optional_payloadISt8functionIFvldEELb1ELb0ELb0EEC2Ev(ptr noundef nonnull align 8 dereferenceable(33) %0) unnamed_addr #1 comdat align 2 {
  %2 = alloca ptr, align 8
  store ptr %0, ptr %2, align 8, !tbaa !588
  %3 = load ptr, ptr %2, align 8
  call void @_ZNSt22_Optional_payload_baseISt8functionIFvldEEEC2Ev(ptr noundef nonnull align 8 dereferenceable(33) %3) #22
  ret void
}

; Function Attrs: inlinehint mustprogress uwtable
define internal void @"_ZNSt17_Optional_payloadISt8functionIFvldEELb1ELb0ELb0EECI2St22_Optional_payload_baseIS2_EIJZN3gmx10EnergyData7Element35registerTrajectorySignallerCallbackENS5_15TrajectoryEventEE3$_0EEESt10in_place_tDpOT_"(ptr noundef nonnull align 8 dereferenceable(33) %0, ptr noundef nonnull align 8 dereferenceable(8) %1) unnamed_addr #5 align 2 {
  %3 = alloca ptr, align 8
  %4 = alloca ptr, align 8
  store ptr %0, ptr %3, align 8, !tbaa !588
  store ptr %1, ptr %4, align 8, !tbaa !285
  %5 = load ptr, ptr %3, align 8
  %6 = load ptr, ptr %4, align 8
  call void @"_ZNSt22_Optional_payload_baseISt8functionIFvldEEEC2IJZN3gmx10EnergyData7Element35registerTrajectorySignallerCallbackENS5_15TrajectoryEventEE3$_0EEESt10in_place_tDpOT_"(ptr noundef nonnull align 8 dereferenceable(33) %5, ptr noundef nonnull align 8 dereferenceable(8) %6)
  ret void
}

; Function Attrs: mustprogress nounwind uwtable
define linkonce_odr void @_ZNSt17_Optional_payloadISt8functionIFvldEELb0ELb0ELb0EEC2Ev(ptr noundef nonnull align 8 dereferenceable(33) %0) unnamed_addr #1 comdat align 2 {
  %2 = alloca ptr, align 8
  store ptr %0, ptr %2, align 8, !tbaa !586
  %3 = load ptr, ptr %2, align 8
  call void @_ZNSt17_Optional_payloadISt8functionIFvldEELb1ELb0ELb0EEC2Ev(ptr noundef nonnull align 8 dereferenceable(33) %3) #22
  ret void
}

; Function Attrs: inlinehint mustprogress uwtable
define internal void @"_ZNSt17_Optional_payloadISt8functionIFvldEELb0ELb0ELb0EECI2St22_Optional_payload_baseIS2_EIJZN3gmx10EnergyData7Element35registerTrajectorySignallerCallbackENS5_15TrajectoryEventEE3$_0EEESt10in_place_tDpOT_"(ptr noundef nonnull align 8 dereferenceable(33) %0, ptr noundef nonnull align 8 dereferenceable(8) %1) unnamed_addr #5 align 2 {
  %3 = alloca ptr, align 8
  %4 = alloca ptr, align 8
  store ptr %0, ptr %3, align 8, !tbaa !586
  store ptr %1, ptr %4, align 8, !tbaa !285
  %5 = load ptr, ptr %3, align 8
  %6 = load ptr, ptr %4, align 8
  call void @"_ZNSt17_Optional_payloadISt8functionIFvldEELb1ELb0ELb0EECI2St22_Optional_payload_baseIS2_EIJZN3gmx10EnergyData7Element35registerTrajectorySignallerCallbackENS5_15TrajectoryEventEE3$_0EEESt10in_place_tDpOT_"(ptr noundef nonnull align 8 dereferenceable(33) %5, ptr noundef nonnull align 8 dereferenceable(8) %6)
  ret void
}

; Function Attrs: mustprogress nounwind uwtable
define linkonce_odr void @_ZNSt14_Optional_baseISt8functionIFvldEELb0ELb0EEC2Ev(ptr noundef nonnull align 8 dereferenceable(40) %0) unnamed_addr #1 comdat align 2 {
  %2 = alloca ptr, align 8
  store ptr %0, ptr %2, align 8, !tbaa !584
  %3 = load ptr, ptr %2, align 8
  %4 = getelementptr inbounds nuw %"struct.std::_Optional_base.18", ptr %3, i32 0, i32 0
  call void @_ZNSt17_Optional_payloadISt8functionIFvldEELb0ELb0ELb0EEC2Ev(ptr noundef nonnull align 8 dereferenceable(33) %4) #22
  ret void
}

; Function Attrs: noinline noreturn nounwind uwtable
define linkonce_odr hidden void @__clang_call_terminate(ptr noundef %0) #10 comdat {
  %2 = call ptr @__cxa_begin_catch(ptr %0) #22
  call void @_ZSt9terminatev() #25
  unreachable
}

; Function Attrs: mustprogress uwtable
define internal void @"_ZNSt14_Optional_baseISt8functionIFvldEELb0ELb0EEC2IJZN3gmx10EnergyData7Element35registerTrajectorySignallerCallbackENS5_15TrajectoryEventEE3$_0ETnNSt9enable_ifIX18is_constructible_vIS2_DpT_EEbE4typeELb0EEESt10in_place_tDpOSB_"(ptr noundef nonnull align 8 dereferenceable(40) %0, ptr noundef nonnull align 8 dereferenceable(8) %1) unnamed_addr #0 align 2 {
  %3 = alloca ptr, align 8
  %4 = alloca ptr, align 8
  store ptr %0, ptr %3, align 8, !tbaa !584
  store ptr %1, ptr %4, align 8, !tbaa !285
  %5 = load ptr, ptr %3, align 8
  %6 = getelementptr inbounds nuw %"struct.std::_Optional_base.18", ptr %5, i32 0, i32 0
  %7 = load ptr, ptr %4, align 8, !tbaa !285
  call void @"_ZNSt17_Optional_payloadISt8functionIFvldEELb0ELb0ELb0EECI2St22_Optional_payload_baseIS2_EIJZN3gmx10EnergyData7Element35registerTrajectorySignallerCallbackENS5_15TrajectoryEventEE3$_0EEESt10in_place_tDpOT_"(ptr noundef nonnull align 8 dereferenceable(33) %6, ptr noundef nonnull align 8 dereferenceable(8) %7)
  ret void
}

; Function Attrs: mustprogress nounwind uwtable
define linkonce_odr void @_ZNSt8optionalISt8functionIFvldEEEC2ESt9nullopt_t(ptr noundef nonnull align 8 dereferenceable(40) %0) unnamed_addr #1 comdat align 2 {
  %2 = alloca ptr, align 8
  store ptr %0, ptr %2, align 8, !tbaa !582
  %3 = load ptr, ptr %2, align 8
  call void @_ZNSt14_Optional_baseISt8functionIFvldEELb0ELb0EEC2Ev(ptr noundef nonnull align 8 dereferenceable(40) %3) #22
  ret void
}

; Function Attrs: mustprogress nounwind uwtable
define internal void @"_ZNSt8optionalISt8functionIFvldEEEC2IZN3gmx10EnergyData7Element35registerTrajectorySignallerCallbackENS5_15TrajectoryEventEE3$_0TnNSt9enable_ifIX7__and_vISt6__not_ISt7is_sameIS3_NSt9remove_cvINSt16remove_referenceIT_E4typeEE4typeEEESB_ISC_ISt10in_place_tSJ_EESt16is_constructibleIS2_JSF_EESt14is_convertibleISF_S2_EEEbE4typeELb1EEEOSF_"(ptr noundef nonnull align 8 dereferenceable(40) %0, ptr noundef nonnull align 8 dereferenceable(8) %1) unnamed_addr #1 align 2 personality ptr @__gxx_personality_v0 {
  %3 = alloca ptr, align 8
  %4 = alloca ptr, align 8
  store ptr %0, ptr %3, align 8, !tbaa !582
  store ptr %1, ptr %4, align 8, !tbaa !285
  %5 = load ptr, ptr %3, align 8
  %6 = load ptr, ptr %4, align 8, !tbaa !285
  invoke void @"_ZNSt14_Optional_baseISt8functionIFvldEELb0ELb0EEC2IJZN3gmx10EnergyData7Element35registerTrajectorySignallerCallbackENS5_15TrajectoryEventEE3$_0ETnNSt9enable_ifIX18is_constructible_vIS2_DpT_EEbE4typeELb0EEESt10in_place_tDpOSB_"(ptr noundef nonnull align 8 dereferenceable(40) %5, ptr noundef nonnull align 8 dereferenceable(8) %6)
          to label %7 unwind label %8

7:                                                ; preds = %2
  ret void

8:                                                ; preds = %2
  %9 = landingpad { ptr, i32 }
          catch ptr null
  %10 = extractvalue { ptr, i32 } %9, 0
  call void @__clang_call_terminate(ptr %10) #25
  unreachable
}

; Function Attrs: mustprogress nounwind uwtable
define void @_ZN3gmx10EnergyData7Element35registerTrajectorySignallerCallbackENS_15TrajectoryEventE(ptr dead_on_unwind noalias writable sret(%"class.std::optional.17") align 8 %0, ptr noundef nonnull align 8 dereferenceable(120) %1, i32 noundef %2) unnamed_addr #1 align 2 {
  %4 = alloca ptr, align 8
  %5 = alloca ptr, align 8
  %6 = alloca i32, align 4
  %7 = alloca %class.anon.266, align 8
  store ptr %0, ptr %4, align 8
  store ptr %1, ptr %5, align 8, !tbaa !4
  store i32 %2, ptr %6, align 4, !tbaa !117
  %8 = load ptr, ptr %5, align 8
  %9 = load i32, ptr %6, align 4, !tbaa !117
  %10 = icmp eq i32 %9, 1
  br i1 %10, label %11, label %17

11:                                               ; preds = %3
  %12 = getelementptr inbounds nuw %"class.gmx::EnergyData::Element", ptr %8, i32 0, i32 7
  %13 = load i8, ptr %12, align 8, !tbaa !15, !range !28, !noundef !29
  %14 = trunc i8 %13 to i1
  br i1 %14, label %15, label %17

15:                                               ; preds = %11
  call void @llvm.lifetime.start.p0(i64 8, ptr %7) #22
  %16 = getelementptr inbounds nuw %class.anon.266, ptr %7, i32 0, i32 0
  store ptr %8, ptr %16, align 8, !tbaa !119
  call void @"_ZNSt8optionalISt8functionIFvldEEEC2IZN3gmx10EnergyData7Element35registerTrajectorySignallerCallbackENS5_15TrajectoryEventEE3$_0TnNSt9enable_ifIX7__and_vISt6__not_ISt7is_sameIS3_NSt9remove_cvINSt16remove_referenceIT_E4typeEE4typeEEESB_ISC_ISt10in_place_tSJ_EESt16is_constructibleIS2_JSF_EESt14is_convertibleISF_S2_EEEbE4typeELb1EEEOSF_"(ptr noundef nonnull align 8 dereferenceable(40) %0, ptr noundef nonnull align 8 dereferenceable(8) %7) #22
  call void @llvm.lifetime.end.p0(i64 8, ptr %7) #22
  br label %18

17:                                               ; preds = %11, %3
  call void @_ZNSt8optionalISt8functionIFvldEEEC2ESt9nullopt_t(ptr noundef nonnull align 8 dereferenceable(40) %0) #22
  br label %18

18:                                               ; preds = %17, %15
  ret void
}